target datalayout = "e-m:e-p270:32:32-p271:32:32-p272:64:64-i64:64-i128:128-f80:128-n8:16:32:64-S128"
target triple = "x86_64-unknown-linux-gnu"

%"class.snappy::SnappyDecompressor" = type <{ ptr, ptr, ptr, ptr, i32, i8, [5 x i8], [6 x i8] }>

; Function Attrs: mustprogress nounwind uwtable
define linkonce_odr dso_local noundef nonnull align 4 dereferenceable(4) ptr @_ZSt3minIjERKT_S2_S2_(ptr noundef nonnull align 4 dereferenceable(4) %__a, ptr noundef nonnull align 4 dereferenceable(4) %__b) #0 comdat {
entry:
  %retval = alloca ptr, align 8
  %__a.addr = alloca ptr, align 8
  %__b.addr = alloca ptr, align 8
  store ptr %__a, ptr %__a.addr, align 8
  store ptr %__b, ptr %__b.addr, align 8
  %0 = load ptr, ptr %__b.addr, align 8
  %1 = load i32, ptr %0, align 4
  %2 = load ptr, ptr %__a.addr, align 8
  %3 = load i32, ptr %2, align 4
  %cmp = icmp ult i32 %1, %3
  br i1 %cmp, label %if.then, label %if.end

if.then:                                          ; preds = %entry
  %4 = load ptr, ptr %__b.addr, align 8
  store ptr %4, ptr %retval, align 8
  br label %return

if.end:                                           ; preds = %entry
  %5 = load ptr, ptr %__a.addr, align 8
  store ptr %5, ptr %retval, align 8
  br label %return

return:                                           ; preds = %if.end, %if.then
  %6 = load ptr, ptr %retval, align 8
  ret ptr %6
}

; Function Attrs: mustprogress nounwind uwtable
define linkonce_odr dso_local noundef i32 @_ZN6snappy15CalculateNeededEh(i8 noundef zeroext %tag) #0 comdat {
entry:
  %tag.addr = alloca i8, align 1
  store i8 %tag, ptr %tag.addr, align 1
  %0 = load i8, ptr %tag.addr, align 1
  %conv = zext i8 %0 to i32
  %and = and i32 %conv, 3
  %cmp = icmp eq i32 %and, 0
  br i1 %cmp, label %land.lhs.true, label %cond.false

land.lhs.true:                                    ; preds = %entry
  %1 = load i8, ptr %tag.addr, align 1
  %conv1 = zext i8 %1 to i32
  %cmp2 = icmp sge i32 %conv1, 240
  br i1 %cmp2, label %cond.true, label %cond.false

cond.true:                                        ; preds = %land.lhs.true
  %2 = load i8, ptr %tag.addr, align 1
  %conv3 = zext i8 %2 to i32
  %shr = ashr i32 %conv3, 2
  %sub = sub nsw i32 %shr, 58
  br label %cond.end

cond.false:                                       ; preds = %land.lhs.true, %entry
  %3 = load i8, ptr %tag.addr, align 1
  %conv4 = zext i8 %3 to i32
  %mul = mul nsw i32 %conv4, 8
  %and5 = and i32 %mul, 31
  %shr6 = ashr i32 84083201, %and5
  %and7 = and i32 %shr6, 255
  br label %cond.end

cond.end:                                         ; preds = %cond.false, %cond.true
  %cond = phi i32 [ %sub, %cond.true ], [ %and7, %cond.false ]
  ret i32 %cond
}

; Function Attrs: mustprogress nounwind uwtable
define dso_local noundef zeroext i1 @_ZN6snappy18SnappyDecompressor9RefillTagEv(ptr noundef nonnull align 8 dereferenceable(42) %this) #0 align 2 {
entry:
  %retval = alloca i1, align 1
  %this.addr = alloca ptr, align 8
  %ip = alloca ptr, align 8
  %n = alloca i64, align 8
  %c = alloca i8, align 1
  %needed = alloca i32, align 4
  %nbuf = alloca i32, align 4
  %length = alloca i64, align 8
  %src = alloca ptr, align 8
  %to_add = alloca i32, align 4
  %ref.tmp = alloca i32, align 4
  %ref.tmp32 = alloca i32, align 4
  store ptr %this, ptr %this.addr, align 8
  %this1 = load ptr, ptr %this.addr, align 8
  %ip_ = getelementptr inbounds %"class.snappy::SnappyDecompressor", ptr %this1, i32 0, i32 1
  %0 = load ptr, ptr %ip_, align 8
  store ptr %0, ptr %ip, align 8
  %1 = load ptr, ptr %ip, align 8
  %ip_limit_ = getelementptr inbounds %"class.snappy::SnappyDecompressor", ptr %this1, i32 0, i32 2
  %2 = load ptr, ptr %ip_limit_, align 8
  %cmp = icmp eq ptr %1, %2
  br i1 %cmp, label %if.then, label %if.end11

if.then:                                          ; preds = %entry
  %reader_ = getelementptr inbounds %"class.snappy::SnappyDecompressor", ptr %this1, i32 0, i32 0
  %3 = load ptr, ptr %reader_, align 8
  %peeked_ = getelementptr inbounds %"class.snappy::SnappyDecompressor", ptr %this1, i32 0, i32 4
  %4 = load i32, ptr %peeked_, align 8
  %conv = zext i32 %4 to i64
  %vtable = load ptr, ptr %3, align 8
  %vfn = getelementptr inbounds ptr, ptr %vtable, i64 4
  %5 = load ptr, ptr %vfn, align 8
  call void %5(ptr noundef nonnull align 8 dereferenceable(8) %3, i64 noundef %conv)
  %reader_2 = getelementptr inbounds %"class.snappy::SnappyDecompressor", ptr %this1, i32 0, i32 0
  %6 = load ptr, ptr %reader_2, align 8
  %vtable3 = load ptr, ptr %6, align 8
  %vfn4 = getelementptr inbounds ptr, ptr %vtable3, i64 3
  %7 = load ptr, ptr %vfn4, align 8
  %call = call noundef ptr %7(ptr noundef nonnull align 8 dereferenceable(8) %6, ptr noundef %n)
  store ptr %call, ptr %ip, align 8
  %8 = load i64, ptr %n, align 8
  %conv5 = trunc i64 %8 to i32
  %peeked_6 = getelementptr inbounds %"class.snappy::SnappyDecompressor", ptr %this1, i32 0, i32 4
  store i32 %conv5, ptr %peeked_6, align 8
  %9 = load i64, ptr %n, align 8
  %cmp7 = icmp eq i64 %9, 0
  %eof_ = getelementptr inbounds %"class.snappy::SnappyDecompressor", ptr %this1, i32 0, i32 5
  %frombool = zext i1 %cmp7 to i8
  store i8 %frombool, ptr %eof_, align 4
  %eof_8 = getelementptr inbounds %"class.snappy::SnappyDecompressor", ptr %this1, i32 0, i32 5
  %10 = load i8, ptr %eof_8, align 4
  %tobool = trunc i8 %10 to i1
  br i1 %tobool, label %if.then9, label %if.end

if.then9:                                         ; preds = %if.then
  store i1 false, ptr %retval, align 1
  br label %return

if.end:                                           ; preds = %if.then
  %11 = load ptr, ptr %ip, align 8
  %12 = load i64, ptr %n, align 8
  %add.ptr = getelementptr inbounds i8, ptr %11, i64 %12
  %ip_limit_10 = getelementptr inbounds %"class.snappy::SnappyDecompressor", ptr %this1, i32 0, i32 2
  store ptr %add.ptr, ptr %ip_limit_10, align 8
  br label %if.end11

if.end11:                                         ; preds = %if.end, %entry
  %13 = load ptr, ptr %ip, align 8
  %14 = load i8, ptr %13, align 1
  store i8 %14, ptr %c, align 1
  %15 = load i8, ptr %c, align 1
  %call12 = call noundef i32 @_ZN6snappy15CalculateNeededEh(i8 noundef zeroext %15)
  store i32 %call12, ptr %needed, align 4
  %ip_limit_13 = getelementptr inbounds %"class.snappy::SnappyDecompressor", ptr %this1, i32 0, i32 2
  %16 = load ptr, ptr %ip_limit_13, align 8
  %17 = load ptr, ptr %ip, align 8
  %sub.ptr.lhs.cast = ptrtoint ptr %16 to i64
  %sub.ptr.rhs.cast = ptrtoint ptr %17 to i64
  %sub.ptr.sub = sub i64 %sub.ptr.lhs.cast, %sub.ptr.rhs.cast
  %conv14 = trunc i64 %sub.ptr.sub to i32
  store i32 %conv14, ptr %nbuf, align 4
  %18 = load i32, ptr %nbuf, align 4
  %19 = load i32, ptr %needed, align 4
  %cmp15 = icmp ult i32 %18, %19
  br i1 %cmp15, label %if.then16, label %if.else

if.then16:                                        ; preds = %if.end11
  %scratch_ = getelementptr inbounds %"class.snappy::SnappyDecompressor", ptr %this1, i32 0, i32 6
  %arraydecay = getelementptr inbounds [5 x i8], ptr %scratch_, i64 0, i64 0
  %20 = load ptr, ptr %ip, align 8
  %21 = load i32, ptr %nbuf, align 4
  %conv17 = zext i32 %21 to i64
  call void @llvm.memmove.p0.p0.i64(ptr align 1 %arraydecay, ptr align 1 %20, i64 %conv17, i1 false)
  %reader_18 = getelementptr inbounds %"class.snappy::SnappyDecompressor", ptr %this1, i32 0, i32 0
  %22 = load ptr, ptr %reader_18, align 8
  %peeked_19 = getelementptr inbounds %"class.snappy::SnappyDecompressor", ptr %this1, i32 0, i32 4
  %23 = load i32, ptr %peeked_19, align 8
  %conv20 = zext i32 %23 to i64
  %vtable21 = load ptr, ptr %22, align 8
  %vfn22 = getelementptr inbounds ptr, ptr %vtable21, i64 4
  %24 = load ptr, ptr %vfn22, align 8
  call void %24(ptr noundef nonnull align 8 dereferenceable(8) %22, i64 noundef %conv20)
  %peeked_23 = getelementptr inbounds %"class.snappy::SnappyDecompressor", ptr %this1, i32 0, i32 4
  store i32 0, ptr %peeked_23, align 8
  br label %while.cond

while.cond:                                       ; preds = %if.end31, %if.then16
  %25 = load i32, ptr %nbuf, align 4
  %26 = load i32, ptr %needed, align 4
  %cmp24 = icmp ult i32 %25, %26
  br i1 %cmp24, label %while.body, label %while.end

while.body:                                       ; preds = %while.cond
  %reader_25 = getelementptr inbounds %"class.snappy::SnappyDecompressor", ptr %this1, i32 0, i32 0
  %27 = load ptr, ptr %reader_25, align 8
  %vtable26 = load ptr, ptr %27, align 8
  %vfn27 = getelementptr inbounds ptr, ptr %vtable26, i64 3
  %28 = load ptr, ptr %vfn27, align 8
  %call28 = call noundef ptr %28(ptr noundef nonnull align 8 dereferenceable(8) %27, ptr noundef %length)
  store ptr %call28, ptr %src, align 8
  %29 = load i64, ptr %length, align 8
  %cmp29 = icmp eq i64 %29, 0
  br i1 %cmp29, label %if.then30, label %if.end31

if.then30:                                        ; preds = %while.body
  store i1 false, ptr %retval, align 1
  br label %return

if.end31:                                         ; preds = %while.body
  %30 = load i32, ptr %needed, align 4
  %31 = load i32, ptr %nbuf, align 4
  %sub = sub i32 %30, %31
  store i32 %sub, ptr %ref.tmp, align 4
  %32 = load i64, ptr %length, align 8
  %conv33 = trunc i64 %32 to i32
  store i32 %conv33, ptr %ref.tmp32, align 4
  %call34 = call noundef nonnull align 4 dereferenceable(4) ptr @_ZSt3minIjERKT_S2_S2_(ptr noundef nonnull align 4 dereferenceable(4) %ref.tmp, ptr noundef nonnull align 4 dereferenceable(4) %ref.tmp32)
  %33 = load i32, ptr %call34, align 4
  store i32 %33, ptr %to_add, align 4
  %scratch_35 = getelementptr inbounds %"class.snappy::SnappyDecompressor", ptr %this1, i32 0, i32 6
  %arraydecay36 = getelementptr inbounds [5 x i8], ptr %scratch_35, i64 0, i64 0
  %34 = load i32, ptr %nbuf, align 4
  %idx.ext = zext i32 %34 to i64
  %add.ptr37 = getelementptr inbounds i8, ptr %arraydecay36, i64 %idx.ext
  %35 = load ptr, ptr %src, align 8
  %36 = load i32, ptr %to_add, align 4
  %conv38 = zext i32 %36 to i64
  call void @llvm.memcpy.p0.p0.i64(ptr align 1 %add.ptr37, ptr align 1 %35, i64 %conv38, i1 false)
  %37 = load i32, ptr %to_add, align 4
  %38 = load i32, ptr %nbuf, align 4
  %add = add i32 %38, %37
  store i32 %add, ptr %nbuf, align 4
  %reader_39 = getelementptr inbounds %"class.snappy::SnappyDecompressor", ptr %this1, i32 0, i32 0
  %39 = load ptr, ptr %reader_39, align 8
  %40 = load i32, ptr %to_add, align 4
  %conv40 = zext i32 %40 to i64
  %vtable41 = load ptr, ptr %39, align 8
  %vfn42 = getelementptr inbounds ptr, ptr %vtable41, i64 4
  %41 = load ptr, ptr %vfn42, align 8
  call void %41(ptr noundef nonnull align 8 dereferenceable(8) %39, i64 noundef %conv40)
  br label %while.cond, !llvm.loop !17

while.end:                                        ; preds = %while.cond
  %scratch_43 = getelementptr inbounds %"class.snappy::SnappyDecompressor", ptr %this1, i32 0, i32 6
  %arraydecay44 = getelementptr inbounds [5 x i8], ptr %scratch_43, i64 0, i64 0
  %ip_45 = getelementptr inbounds %"class.snappy::SnappyDecompressor", ptr %this1, i32 0, i32 1
  store ptr %arraydecay44, ptr %ip_45, align 8
  %scratch_46 = getelementptr inbounds %"class.snappy::SnappyDecompressor", ptr %this1, i32 0, i32 6
  %arraydecay47 = getelementptr inbounds [5 x i8], ptr %scratch_46, i64 0, i64 0
  %42 = load i32, ptr %needed, align 4
  %idx.ext48 = zext i32 %42 to i64
  %add.ptr49 = getelementptr inbounds i8, ptr %arraydecay47, i64 %idx.ext48
  %ip_limit_50 = getelementptr inbounds %"class.snappy::SnappyDecompressor", ptr %this1, i32 0, i32 2
  store ptr %add.ptr49, ptr %ip_limit_50, align 8
  br label %if.end73

if.else:                                          ; preds = %if.end11
  %43 = load i32, ptr %nbuf, align 4
  %cmp51 = icmp ult i32 %43, 5
  br i1 %cmp51, label %if.then52, label %if.else70

if.then52:                                        ; preds = %if.else
  %scratch_53 = getelementptr inbounds %"class.snappy::SnappyDecompressor", ptr %this1, i32 0, i32 6
  %arraydecay54 = getelementptr inbounds [5 x i8], ptr %scratch_53, i64 0, i64 0
  %44 = load ptr, ptr %ip, align 8
  %45 = load i32, ptr %nbuf, align 4
  %conv55 = zext i32 %45 to i64
  call void @llvm.memmove.p0.p0.i64(ptr align 1 %arraydecay54, ptr align 1 %44, i64 %conv55, i1 false)
  %reader_56 = getelementptr inbounds %"class.snappy::SnappyDecompressor", ptr %this1, i32 0, i32 0
  %46 = load ptr, ptr %reader_56, align 8
  %peeked_57 = getelementptr inbounds %"class.snappy::SnappyDecompressor", ptr %this1, i32 0, i32 4
  %47 = load i32, ptr %peeked_57, align 8
  %conv58 = zext i32 %47 to i64
  %vtable59 = load ptr, ptr %46, align 8
  %vfn60 = getelementptr inbounds ptr, ptr %vtable59, i64 4
  %48 = load ptr, ptr %vfn60, align 8
  call void %48(ptr noundef nonnull align 8 dereferenceable(8) %46, i64 noundef %conv58)
  %peeked_61 = getelementptr inbounds %"class.snappy::SnappyDecompressor", ptr %this1, i32 0, i32 4
  store i32 0, ptr %peeked_61, align 8
  %scratch_62 = getelementptr inbounds %"class.snappy::SnappyDecompressor", ptr %this1, i32 0, i32 6
  %arraydecay63 = getelementptr inbounds [5 x i8], ptr %scratch_62, i64 0, i64 0
  %ip_64 = getelementptr inbounds %"class.snappy::SnappyDecompressor", ptr %this1, i32 0, i32 1
  store ptr %arraydecay63, ptr %ip_64, align 8
  %scratch_65 = getelementptr inbounds %"class.snappy::SnappyDecompressor", ptr %this1, i32 0, i32 6
  %arraydecay66 = getelementptr inbounds [5 x i8], ptr %scratch_65, i64 0, i64 0
  %49 = load i32, ptr %nbuf, align 4
  %idx.ext67 = zext i32 %49 to i64
  %add.ptr68 = getelementptr inbounds i8, ptr %arraydecay66, i64 %idx.ext67
  %ip_limit_69 = getelementptr inbounds %"class.snappy::SnappyDecompressor", ptr %this1, i32 0, i32 2
  store ptr %add.ptr68, ptr %ip_limit_69, align 8
  br label %if.end72

if.else70:                                        ; preds = %if.else
  %50 = load ptr, ptr %ip, align 8
  %ip_71 = getelementptr inbounds %"class.snappy::SnappyDecompressor", ptr %this1, i32 0, i32 1
  store ptr %50, ptr %ip_71, align 8
  br label %if.end72

if.end72:                                         ; preds = %if.else70, %if.then52
  br label %if.end73

if.end73:                                         ; preds = %if.end72, %while.end
  store i1 true, ptr %retval, align 1
  br label %return

return:                                           ; preds = %if.end73, %if.then30, %if.then9
  %51 = load i1, ptr %retval, align 1
  ret i1 %51
}