; Function Attrs: mustprogress nounwind uwtable
define dso_local noundef zeroext i1 @_ZN6snappy18SnappyDecompressor9RefillTagEv(ptr noundef nonnull align 8 dereferenceable(42) %this) local_unnamed_addr #2 align 2 {
entry:
  %n = alloca i64, align 8
  %length = alloca i64, align 8
  %ip_ = getelementptr inbounds i8, ptr %this, i64 8
  %0 = load ptr, ptr %ip_, align 8
  %ip_limit_ = getelementptr inbounds i8, ptr %this, i64 16
  %1 = load ptr, ptr %ip_limit_, align 8
  %cmp = icmp eq ptr %0, %1
  br i1 %cmp, label %if.then, label %if.end11

if.then:                                          ; preds = %entry
  %2 = load ptr, ptr %this, align 8
  %peeked_ = getelementptr inbounds i8, ptr %this, i64 32
  %3 = load i32, ptr %peeked_, align 8
  %conv = zext i32 %3 to i64
  %vtable = load ptr, ptr %2, align 8
  %vfn = getelementptr inbounds i8, ptr %vtable, i64 32
  %4 = load ptr, ptr %vfn, align 8
  tail call void %4(ptr noundef nonnull align 8 dereferenceable(8) %2, i64 noundef %conv) #19
  %5 = load ptr, ptr %this, align 8
  %vtable3 = load ptr, ptr %5, align 8
  %vfn4 = getelementptr inbounds i8, ptr %vtable3, i64 24
  %6 = load ptr, ptr %vfn4, align 8
  %call = call noundef ptr %6(ptr noundef nonnull align 8 dereferenceable(8) %5, ptr noundef nonnull %n) #19
  %7 = load i64, ptr %n, align 8
  %conv5 = trunc i64 %7 to i32
  store i32 %conv5, ptr %peeked_, align 8
  %cmp7 = icmp eq i64 %7, 0
  %eof_ = getelementptr inbounds i8, ptr %this, i64 36
  %frombool = zext i1 %cmp7 to i8
  store i8 %frombool, ptr %eof_, align 4
  br i1 %cmp7, label %return, label %if.end

if.end:                                           ; preds = %if.then
  %add.ptr = getelementptr inbounds i8, ptr %call, i64 %7
  store ptr %add.ptr, ptr %ip_limit_, align 8
  br label %if.end11

if.end11:                                         ; preds = %if.end, %entry
  %8 = phi ptr [ %add.ptr, %if.end ], [ %1, %entry ]
  %ip.0 = phi ptr [ %call, %if.end ], [ %0, %entry ]
  %9 = load i8, ptr %ip.0, align 1
  %conv.i = zext i8 %9 to i32
  %and.i = and i32 %conv.i, 3
  %cmp.i = icmp eq i32 %and.i, 0
  %cmp2.i = icmp ugt i8 %9, -17
  %or.cond.i = and i1 %cmp2.i, %cmp.i
  br i1 %or.cond.i, label %cond.true.i, label %cond.false.i

cond.true.i:                                      ; preds = %if.end11
  %shr.i = lshr exact i32 %conv.i, 2
  %sub.i = add nsw i32 %shr.i, -58
  br label %_ZN6snappy15CalculateNeededEh.exit

cond.false.i:                                     ; preds = %if.end11
  %mul.i = shl nuw nsw i32 %conv.i, 3
  %and5.i = and i32 %mul.i, 24
  %shr6.i = lshr i32 84083201, %and5.i
  %and7.i = and i32 %shr6.i, 7
  br label %_ZN6snappy15CalculateNeededEh.exit

_ZN6snappy15CalculateNeededEh.exit:               ; preds = %cond.true.i, %cond.false.i
  %cond.i = phi i32 [ %sub.i, %cond.true.i ], [ %and7.i, %cond.false.i ]
  %sub.ptr.lhs.cast = ptrtoint ptr %8 to i64
  %sub.ptr.rhs.cast = ptrtoint ptr %ip.0 to i64
  %sub.ptr.sub = sub i64 %sub.ptr.lhs.cast, %sub.ptr.rhs.cast
  %conv14 = trunc i64 %sub.ptr.sub to i32
  %cmp15 = icmp ugt i32 %cond.i, %conv14
  br i1 %cmp15, label %if.then16, label %if.else

if.then16:                                        ; preds = %_ZN6snappy15CalculateNeededEh.exit
  %scratch_ = getelementptr inbounds i8, ptr %this, i64 37
  %conv17 = and i64 %sub.ptr.sub, 4294967295
  call void @llvm.memmove.p0.p0.i64(ptr nonnull align 1 %scratch_, ptr nonnull align 1 %ip.0, i64 %conv17, i1 false)
  %10 = load ptr, ptr %this, align 8
  %peeked_19 = getelementptr inbounds i8, ptr %this, i64 32
  %11 = load i32, ptr %peeked_19, align 8
  %conv20 = zext i32 %11 to i64
  %vtable21 = load ptr, ptr %10, align 8
  %vfn22 = getelementptr inbounds i8, ptr %vtable21, i64 32
  %12 = load ptr, ptr %vfn22, align 8
  call void %12(ptr noundef nonnull align 8 dereferenceable(8) %10, i64 noundef %conv20) #19
  store i32 0, ptr %peeked_19, align 8
  br label %while.body

while.body:                                       ; preds = %if.then16, %if.end31
  %nbuf.023 = phi i32 [ %conv14, %if.then16 ], [ %add, %if.end31 ]
  %13 = load ptr, ptr %this, align 8
  %vtable26 = load ptr, ptr %13, align 8
  %vfn27 = getelementptr inbounds i8, ptr %vtable26, i64 24
  %14 = load ptr, ptr %vfn27, align 8
  %call28 = call noundef ptr %14(ptr noundef nonnull align 8 dereferenceable(8) %13, ptr noundef nonnull %length) #19
  %15 = load i64, ptr %length, align 8
  %cmp29 = icmp eq i64 %15, 0
  br i1 %cmp29, label %return, label %if.end31

if.end31:                                         ; preds = %while.body
  %sub = sub i32 %cond.i, %nbuf.023
  %conv33 = trunc i64 %15 to i32
  %.sroa.speculated = call i32 @llvm.umin.i32(i32 %sub, i32 %conv33)
  %idx.ext = zext i32 %nbuf.023 to i64
  %add.ptr37 = getelementptr inbounds i8, ptr %scratch_, i64 %idx.ext
  %conv38 = zext i32 %.sroa.speculated to i64
  call void @llvm.memcpy.p0.p0.i64(ptr nonnull align 1 %add.ptr37, ptr align 1 %call28, i64 %conv38, i1 false)
  %add = add i32 %.sroa.speculated, %nbuf.023
  %16 = load ptr, ptr %this, align 8
  %vtable41 = load ptr, ptr %16, align 8
  %vfn42 = getelementptr inbounds i8, ptr %vtable41, i64 32
  %17 = load ptr, ptr %vfn42, align 8
  call void %17(ptr noundef nonnull align 8 dereferenceable(8) %16, i64 noundef %conv38) #19
  %cmp24 = icmp ult i32 %add, %cond.i
  br i1 %cmp24, label %while.body, label %while.end, !llvm.loop !19

while.end:                                        ; preds = %if.end31
  store ptr %scratch_, ptr %ip_, align 8
  %idx.ext48 = zext i32 %cond.i to i64
  %add.ptr49 = getelementptr inbounds i8, ptr %scratch_, i64 %idx.ext48
  store ptr %add.ptr49, ptr %ip_limit_, align 8
  br label %return

if.else:                                          ; preds = %_ZN6snappy15CalculateNeededEh.exit
  %cmp51 = icmp ult i32 %conv14, 5
  br i1 %cmp51, label %if.then52, label %if.else70

if.then52:                                        ; preds = %if.else
  %scratch_53 = getelementptr inbounds i8, ptr %this, i64 37
  %conv55 = and i64 %sub.ptr.sub, 7
  call void @llvm.memmove.p0.p0.i64(ptr nonnull align 1 %scratch_53, ptr nonnull align 1 %ip.0, i64 %conv55, i1 false)
  %18 = load ptr, ptr %this, align 8
  %peeked_57 = getelementptr inbounds i8, ptr %this, i64 32
  %19 = load i32, ptr %peeked_57, align 8
  %conv58 = zext i32 %19 to i64
  %vtable59 = load ptr, ptr %18, align 8
  %vfn60 = getelementptr inbounds i8, ptr %vtable59, i64 32
  %20 = load ptr, ptr %vfn60, align 8
  call void %20(ptr noundef nonnull align 8 dereferenceable(8) %18, i64 noundef %conv58) #19
  store i32 0, ptr %peeked_57, align 8
  store ptr %scratch_53, ptr %ip_, align 8
  %add.ptr68 = getelementptr inbounds i8, ptr %scratch_53, i64 %conv55
  store ptr %add.ptr68, ptr %ip_limit_, align 8
  br label %return

if.else70:                                        ; preds = %if.else
  store ptr %ip.0, ptr %ip_, align 8
  br label %return

return:                                           ; preds = %while.body, %while.end, %if.else70, %if.then52, %if.then
  %retval.0 = phi i1 [ false, %if.then ], [ true, %if.then52 ], [ true, %if.else70 ], [ true, %while.end ], [ false, %while.body ]
  ret i1 %retval.0
}